target datalayout = "e-m:e-p270:32:32-p271:32:32-p272:64:64-i64:64-i128:128-f80:128-n8:16:32:64-S128"
target triple = "x86_64-pc-linux-gnu"

%struct.Vec_Int_t_ = type { i32, i32, ptr }
%struct.Gia_Man_t_ = type { ptr, ptr, i32, i32, i32, i32, ptr, ptr, i32, i32, i32, ptr, ptr, %struct.Vec_Int_t_, %struct.Vec_Int_t_, i32, i32, i32, %struct.Vec_Int_t_, ptr, ptr, ptr, i32, i32, i32, i32, ptr, ptr, ptr, ptr, ptr, i32, i32, ptr, i32, ptr, ptr, ptr, ptr, ptr, ptr, ptr, ptr, ptr, ptr, ptr, ptr, ptr, ptr, ptr, ptr, ptr, ptr, %struct.Vec_Int_t_, %struct.Vec_Int_t_, ptr, ptr, ptr, ptr, ptr, ptr, ptr, ptr, ptr, ptr, ptr, ptr, ptr, ptr, ptr, ptr, ptr, ptr, ptr, ptr, ptr, i32, float, float, ptr, ptr, i32, ptr, ptr, ptr, ptr, ptr, ptr, ptr, ptr, ptr, ptr, ptr, ptr, ptr, ptr, ptr, i64, i64, ptr, ptr, i32, i32, i32, i32, i32, i32, i32, i32, i32, i32, i32, i32, ptr, ptr, ptr, ptr, ptr, ptr, ptr, ptr, i32, i32, i32, ptr, i32, i32, ptr, ptr, ptr, ptr, ptr, ptr, i32, i32, ptr, %struct.Vec_Int_t_, %struct.Vec_Int_t_, %struct.Vec_Int_t_, ptr, ptr, ptr }
%struct.Gia_Obj_t_ = type <{ i64, i32 }>

; Function Attrs: nounwind uwtable
define internal void @Vec_IntGrow(ptr noundef %0, i32 noundef %1) #0 {
  %3 = alloca ptr, align 8
  %4 = alloca i32, align 4
  store ptr %0, ptr %3, align 8
  store i32 %1, ptr %4, align 4
  %5 = load ptr, ptr %3, align 8
  %6 = getelementptr inbounds %struct.Vec_Int_t_, ptr %5, i32 0, i32 0
  %7 = load i32, ptr %6, align 8
  %8 = load i32, ptr %4, align 4
  %9 = icmp sge i32 %7, %8
  br i1 %9, label %10, label %11

10:                                               ; preds = %2
  br label %36

11:                                               ; preds = %2
  %12 = load ptr, ptr %3, align 8
  %13 = getelementptr inbounds %struct.Vec_Int_t_, ptr %12, i32 0, i32 2
  %14 = load ptr, ptr %13, align 8
  %15 = icmp ne ptr %14, null
  br i1 %15, label %16, label %24

16:                                               ; preds = %11
  %17 = load ptr, ptr %3, align 8
  %18 = getelementptr inbounds %struct.Vec_Int_t_, ptr %17, i32 0, i32 2
  %19 = load ptr, ptr %18, align 8
  %20 = load i32, ptr %4, align 4
  %21 = sext i32 %20 to i64
  %22 = mul i64 4, %21
  %23 = call ptr @realloc(ptr noundef %19, i64 noundef %22) #14
  br label %29

24:                                               ; preds = %11
  %25 = load i32, ptr %4, align 4
  %26 = sext i32 %25 to i64
  %27 = mul i64 4, %26
  %28 = call noalias ptr @malloc(i64 noundef %27) #11
  br label %29

29:                                               ; preds = %24, %16
  %30 = phi ptr [ %23, %16 ], [ %28, %24 ]
  %31 = load ptr, ptr %3, align 8
  %32 = getelementptr inbounds %struct.Vec_Int_t_, ptr %31, i32 0, i32 2
  store ptr %30, ptr %32, align 8
  %33 = load i32, ptr %4, align 4
  %34 = load ptr, ptr %3, align 8
  %35 = getelementptr inbounds %struct.Vec_Int_t_, ptr %34, i32 0, i32 0
  store i32 %33, ptr %35, align 8
  br label %36

36:                                               ; preds = %29, %10
  ret void
}

; Function Attrs: nounwind uwtable
define internal void @Vec_IntPush(ptr noundef %0, i32 noundef %1) #0 {
  %3 = alloca ptr, align 8
  %4 = alloca i32, align 4
  store ptr %0, ptr %3, align 8
  store i32 %1, ptr %4, align 4
  %5 = load ptr, ptr %3, align 8
  %6 = getelementptr inbounds %struct.Vec_Int_t_, ptr %5, i32 0, i32 1
  %7 = load i32, ptr %6, align 4
  %8 = load ptr, ptr %3, align 8
  %9 = getelementptr inbounds %struct.Vec_Int_t_, ptr %8, i32 0, i32 0
  %10 = load i32, ptr %9, align 8
  %11 = icmp eq i32 %7, %10
  br i1 %11, label %12, label %26

12:                                               ; preds = %2
  %13 = load ptr, ptr %3, align 8
  %14 = getelementptr inbounds %struct.Vec_Int_t_, ptr %13, i32 0, i32 0
  %15 = load i32, ptr %14, align 8
  %16 = icmp slt i32 %15, 16
  br i1 %16, label %17, label %19

17:                                               ; preds = %12
  %18 = load ptr, ptr %3, align 8
  call void @Vec_IntGrow(ptr noundef %18, i32 noundef 16)
  br label %25

19:                                               ; preds = %12
  %20 = load ptr, ptr %3, align 8
  %21 = load ptr, ptr %3, align 8
  %22 = getelementptr inbounds %struct.Vec_Int_t_, ptr %21, i32 0, i32 0
  %23 = load i32, ptr %22, align 8
  %24 = mul nsw i32 2, %23
  call void @Vec_IntGrow(ptr noundef %20, i32 noundef %24)
  br label %25

25:                                               ; preds = %19, %17
  br label %26

26:                                               ; preds = %25, %2
  %27 = load i32, ptr %4, align 4
  %28 = load ptr, ptr %3, align 8
  %29 = getelementptr inbounds %struct.Vec_Int_t_, ptr %28, i32 0, i32 2
  %30 = load ptr, ptr %29, align 8
  %31 = load ptr, ptr %3, align 8
  %32 = getelementptr inbounds %struct.Vec_Int_t_, ptr %31, i32 0, i32 1
  %33 = load i32, ptr %32, align 4
  %34 = add nsw i32 %33, 1
  store i32 %34, ptr %32, align 4
  %35 = sext i32 %33 to i64
  %36 = getelementptr inbounds i32, ptr %30, i64 %35
  store i32 %27, ptr %36, align 4
  ret void
}

; Function Attrs: nounwind uwtable
define internal i32 @Gia_ObjId(ptr noundef %0, ptr noundef %1) #0 {
  %3 = alloca ptr, align 8
  %4 = alloca ptr, align 8
  store ptr %0, ptr %3, align 8
  store ptr %1, ptr %4, align 8
  %5 = load ptr, ptr %4, align 8
  %6 = load ptr, ptr %3, align 8
  %7 = getelementptr inbounds %struct.Gia_Man_t_, ptr %6, i32 0, i32 6
  %8 = load ptr, ptr %7, align 8
  %9 = ptrtoint ptr %5 to i64
  %10 = ptrtoint ptr %8 to i64
  %11 = sub i64 %9, %10
  %12 = sdiv exact i64 %11, 12
  %13 = trunc i64 %12 to i32
  ret i32 %13
}

; Function Attrs: nounwind uwtable
define internal ptr @Gia_ObjFanin1(ptr noundef %0) #0 {
  %2 = alloca ptr, align 8
  store ptr %0, ptr %2, align 8
  %3 = load ptr, ptr %2, align 8
  %4 = load ptr, ptr %2, align 8
  %5 = load i64, ptr %4, align 4
  %6 = lshr i64 %5, 32
  %7 = and i64 %6, 536870911
  %8 = trunc i64 %7 to i32
  %9 = sext i32 %8 to i64
  %10 = sub i64 0, %9
  %11 = getelementptr inbounds %struct.Gia_Obj_t_, ptr %3, i64 %10
  ret ptr %11
}

; Function Attrs: nounwind uwtable
define internal ptr @Gia_ObjFanin0(ptr noundef %0) #0 {
  %2 = alloca ptr, align 8
  store ptr %0, ptr %2, align 8
  %3 = load ptr, ptr %2, align 8
  %4 = load ptr, ptr %2, align 8
  %5 = load i64, ptr %4, align 4
  %6 = and i64 %5, 536870911
  %7 = trunc i64 %6 to i32
  %8 = sext i32 %7 to i64
  %9 = sub i64 0, %8
  %10 = getelementptr inbounds %struct.Gia_Obj_t_, ptr %3, i64 %9
  ret ptr %10
}

; Function Attrs: nounwind uwtable
define internal void @Gia_ObjSetTravIdCurrent(ptr noundef %0, ptr noundef %1) #0 {
  %3 = alloca ptr, align 8
  %4 = alloca ptr, align 8
  store ptr %0, ptr %3, align 8
  store ptr %1, ptr %4, align 8
  %5 = load ptr, ptr %3, align 8
  %6 = getelementptr inbounds %struct.Gia_Man_t_, ptr %5, i32 0, i32 24
  %7 = load i32, ptr %6, align 8
  %8 = load ptr, ptr %3, align 8
  %9 = getelementptr inbounds %struct.Gia_Man_t_, ptr %8, i32 0, i32 80
  %10 = load ptr, ptr %9, align 8
  %11 = load ptr, ptr %3, align 8
  %12 = load ptr, ptr %4, align 8
  %13 = call i32 @Gia_ObjId(ptr noundef %11, ptr noundef %12)
  %14 = sext i32 %13 to i64
  %15 = getelementptr inbounds i32, ptr %10, i64 %14
  store i32 %7, ptr %15, align 4
  ret void
}

; Function Attrs: nounwind uwtable
define internal i32 @Gia_ObjIsTravIdCurrent(ptr noundef %0, ptr noundef %1) #0 {
  %3 = alloca ptr, align 8
  %4 = alloca ptr, align 8
  store ptr %0, ptr %3, align 8
  store ptr %1, ptr %4, align 8
  %5 = load ptr, ptr %3, align 8
  %6 = getelementptr inbounds %struct.Gia_Man_t_, ptr %5, i32 0, i32 80
  %7 = load ptr, ptr %6, align 8
  %8 = load ptr, ptr %3, align 8
  %9 = load ptr, ptr %4, align 8
  %10 = call i32 @Gia_ObjId(ptr noundef %8, ptr noundef %9)
  %11 = sext i32 %10 to i64
  %12 = getelementptr inbounds i32, ptr %7, i64 %11
  %13 = load i32, ptr %12, align 4
  %14 = load ptr, ptr %3, align 8
  %15 = getelementptr inbounds %struct.Gia_Man_t_, ptr %14, i32 0, i32 24
  %16 = load i32, ptr %15, align 8
  %17 = icmp eq i32 %13, %16
  %18 = zext i1 %17 to i32
  ret i32 %18
}

; Function Attrs: nounwind uwtable
define void @Acb_CollectIntNodes_rec(ptr noundef %0, ptr noundef %1, ptr noundef %2) #0 {
  %4 = alloca ptr, align 8
  %5 = alloca ptr, align 8
  %6 = alloca ptr, align 8
  store ptr %0, ptr %4, align 8
  store ptr %1, ptr %5, align 8
  store ptr %2, ptr %6, align 8
  %7 = load ptr, ptr %4, align 8
  %8 = load ptr, ptr %5, align 8
  %9 = call i32 @Gia_ObjIsTravIdCurrent(ptr noundef %7, ptr noundef %8)
  %10 = icmp ne i32 %9, 0
  br i1 %10, label %11, label %12

11:                                               ; preds = %3
  br label %27

12:                                               ; preds = %3
  %13 = load ptr, ptr %4, align 8
  %14 = load ptr, ptr %5, align 8
  call void @Gia_ObjSetTravIdCurrent(ptr noundef %13, ptr noundef %14)
  %15 = load ptr, ptr %4, align 8
  %16 = load ptr, ptr %5, align 8
  %17 = call ptr @Gia_ObjFanin0(ptr noundef %16)
  %18 = load ptr, ptr %6, align 8
  call void @Acb_CollectIntNodes_rec(ptr noundef %15, ptr noundef %17, ptr noundef %18)
  %19 = load ptr, ptr %4, align 8
  %20 = load ptr, ptr %5, align 8
  %21 = call ptr @Gia_ObjFanin1(ptr noundef %20)
  %22 = load ptr, ptr %6, align 8
  call void @Acb_CollectIntNodes_rec(ptr noundef %19, ptr noundef %21, ptr noundef %22)
  %23 = load ptr, ptr %6, align 8
  %24 = load ptr, ptr %4, align 8
  %25 = load ptr, ptr %5, align 8
  %26 = call i32 @Gia_ObjId(ptr noundef %24, ptr noundef %25)
  call void @Vec_IntPush(ptr noundef %23, i32 noundef %26)
  br label %27

27:                                               ; preds = %12, %11
  ret void
}