; Function Attrs: nounwind uwtable
define void @Acb_CollectIntNodes_rec(ptr noundef %0, ptr noundef %1, ptr noundef %2) local_unnamed_addr #0 {
  %4 = getelementptr inbounds nuw i8, ptr %0, i64 616
  %5 = load ptr, ptr %4, align 8
  %6 = getelementptr i8, ptr %0, i64 32
  %.val.i = load ptr, ptr %6, align 8
  %7 = ptrtoint ptr %1 to i64
  %8 = ptrtoint ptr %.val.i to i64
  %9 = sub i64 %7, %8
  %10 = sdiv exact i64 %9, 12
  %sext.i = shl i64 %10, 32
  %11 = ashr exact i64 %sext.i, 30
  %12 = getelementptr inbounds i8, ptr %5, i64 %11
  %13 = load i32, ptr %12, align 4
  %14 = getelementptr inbounds nuw i8, ptr %0, i64 176
  %15 = load i32, ptr %14, align 8
  %.not = icmp eq i32 %13, %15
  br i1 %.not, label %61, label %16

16:                                               ; preds = %3
  store i32 %15, ptr %12, align 4
  %17 = load i64, ptr %1, align 4
  %18 = and i64 %17, 536870911
  %19 = sub nsw i64 0, %18
  %20 = getelementptr inbounds %struct.Gia_Obj_t_, ptr %1, i64 %19
  tail call void @Acb_CollectIntNodes_rec(ptr noundef nonnull %0, ptr noundef nonnull %20, ptr noundef %2)
  %21 = load i64, ptr %1, align 4
  %22 = lshr i64 %21, 32
  %23 = and i64 %22, 536870911
  %24 = sub nsw i64 0, %23
  %25 = getelementptr inbounds %struct.Gia_Obj_t_, ptr %1, i64 %24
  tail call void @Acb_CollectIntNodes_rec(ptr noundef nonnull %0, ptr noundef nonnull %25, ptr noundef %2)
  %.val = load ptr, ptr %6, align 8
  %26 = ptrtoint ptr %.val to i64
  %27 = sub i64 %7, %26
  %28 = sdiv exact i64 %27, 12
  %29 = trunc i64 %28 to i32
  %30 = getelementptr inbounds nuw i8, ptr %2, i64 4
  %31 = load i32, ptr %30, align 4
  %32 = load i32, ptr %2, align 8
  %33 = icmp eq i32 %31, %32
  br i1 %33, label %34, label %.Vec_IntGrow.exit10_crit_edge.i

.Vec_IntGrow.exit10_crit_edge.i:                  ; preds = %16
  %.phi.trans.insert.i = getelementptr inbounds nuw i8, ptr %2, i64 8
  %.pre.i = load ptr, ptr %.phi.trans.insert.i, align 8
  br label %Vec_IntPush.exit

34:                                               ; preds = %16
  %35 = icmp slt i32 %31, 16
  br i1 %35, label %36, label %44

36:                                               ; preds = %34
  %37 = getelementptr inbounds nuw i8, ptr %2, i64 8
  %38 = load ptr, ptr %37, align 8
  %.not9.i.i = icmp eq ptr %38, null
  br i1 %.not9.i.i, label %41, label %39

39:                                               ; preds = %36
  %40 = tail call dereferenceable_or_null(64) ptr @realloc(ptr noundef nonnull %38, i64 noundef 64) #30
  br label %Vec_IntGrow.exit.i

41:                                               ; preds = %36
  %42 = tail call noalias dereferenceable_or_null(64) ptr @malloc(i64 noundef 64) #29
  br label %Vec_IntGrow.exit.i

Vec_IntGrow.exit.i:                               ; preds = %41, %39
  %43 = phi ptr [ %40, %39 ], [ %42, %41 ]
  store ptr %43, ptr %37, align 8
  store i32 16, ptr %2, align 8
  br label %Vec_IntPush.exit

44:                                               ; preds = %34
  %45 = shl nuw nsw i32 %31, 1
  %46 = getelementptr inbounds nuw i8, ptr %2, i64 8
  %47 = load ptr, ptr %46, align 8
  %.not9.i9.i = icmp eq ptr %47, null
  %48 = zext nneg i32 %45 to i64
  %49 = shl nuw nsw i64 %48, 2
  br i1 %.not9.i9.i, label %52, label %50

50:                                               ; preds = %44
  %51 = tail call ptr @realloc(ptr noundef nonnull %47, i64 noundef %49) #30
  br label %54

52:                                               ; preds = %44
  %53 = tail call noalias ptr @malloc(i64 noundef %49) #29
  br label %54

54:                                               ; preds = %52, %50
  %55 = phi ptr [ %51, %50 ], [ %53, %52 ]
  store ptr %55, ptr %46, align 8
  store i32 %45, ptr %2, align 8
  br label %Vec_IntPush.exit

Vec_IntPush.exit:                                 ; preds = %.Vec_IntGrow.exit10_crit_edge.i, %Vec_IntGrow.exit.i, %54
  %56 = phi ptr [ %.pre.i, %.Vec_IntGrow.exit10_crit_edge.i ], [ %55, %54 ], [ %43, %Vec_IntGrow.exit.i ]
  %57 = load i32, ptr %30, align 4
  %58 = add nsw i32 %57, 1
  store i32 %58, ptr %30, align 4
  %59 = sext i32 %57 to i64
  %60 = getelementptr inbounds i32, ptr %56, i64 %59
  store i32 %29, ptr %60, align 4
  br label %61

61:                                               ; preds = %3, %Vec_IntPush.exit
  ret void
}